; Function Attrs: mustprogress nofree norecurse nosync nounwind memory(readwrite, inaccessiblemem: none) uwtable
define dso_local void @_ZN10btSoftBody11setVelocityERK9btVector3(ptr nocapture noundef nonnull readonly align 8 dereferenceable(2064) %this, ptr nocapture noundef nonnull readonly align 4 dereferenceable(16) %velocity) local_unnamed_addr #11 align 2 {
entry:
  %m_size.i = getelementptr inbounds i8, ptr %this, i64 932
  %0 = load i32, ptr %m_size.i, align 4
  %cmp6 = icmp sgt i32 %0, 0
  br i1 %cmp6, label %for.body.lr.ph, label %for.end

for.body.lr.ph:                                   ; preds = %entry
  %m_data.i = getelementptr inbounds i8, ptr %this, i64 944
  %wide.trip.count = zext nneg i32 %0 to i64
  br label %for.body

for.body:                                         ; preds = %for.body.lr.ph, %for.inc
  %indvars.iv = phi i64 [ 0, %for.body.lr.ph ], [ %indvars.iv.next, %for.inc ]
  %1 = load ptr, ptr %m_data.i, align 8
  %arrayidx.i = getelementptr inbounds %"struct.btSoftBody::Node", ptr %1, i64 %indvars.iv
  %m_im = getelementptr inbounds i8, ptr %arrayidx.i, i64 112
  %2 = load float, ptr %m_im, align 8
  %cmp4 = fcmp ogt float %2, 0.000000e+00
  br i1 %cmp4, label %if.then, label %for.inc

if.then:                                          ; preds = %for.body
  %m_v = getelementptr inbounds i8, ptr %arrayidx.i, i64 48
  tail call void @llvm.memcpy.p0.p0.i64(ptr noundef nonnull align 8 dereferenceable(16) %m_v, ptr noundef nonnull align 4 dereferenceable(16) %velocity, i64 16, i1 false)
  %m_vn = getelementptr inbounds i8, ptr %arrayidx.i, i64 64
  tail call void @llvm.memcpy.p0.p0.i64(ptr noundef nonnull align 8 dereferenceable(16) %m_vn, ptr noundef nonnull align 4 dereferenceable(16) %velocity, i64 16, i1 false)
  br label %for.inc

for.inc:                                          ; preds = %for.body, %if.then
  %indvars.iv.next = add nuw nsw i64 %indvars.iv, 1
  %exitcond.not = icmp eq i64 %indvars.iv.next, %wide.trip.count
  br i1 %exitcond.not, label %for.end, label %for.body, !llvm.loop !135

for.end:                                          ; preds = %for.inc, %entry
  ret void
}